; Prepare for decoding

00:195C  41 F9  LEA     ($0002F0D2),A0           A0=00FF5D80 A1=00A10005 A2=00C00004 A3=00C00000 A4=00FF4080 A5=00C00000 A6=000029DA A7=FFFFFFFC D0=80000003 D1=0000FFFF D2=0000FFFF D3=0000FFFF D4=EC430000 D5=00800000 D6=00000000 D7=0000FFFF xNzvc
00:1962  43 F9  LEA     ($00FF0000),A1           A0=0002F0D2 A1=00A10005 A2=00C00004 A3=00C00000 A4=00FF4080 A5=00C00000 A6=000029DA A7=FFFFFFFC D0=80000003 D1=0000FFFF D2=0000FFFF D3=0000FFFF D4=EC430000 D5=00800000 D6=00000000 D7=0000FFFF xnzvc
00:1968  4E B9  JSR     ($00000BA2)              A0=0002F0D2 A1=00FF0000 A2=00C00004 A3=00C00000 A4=00FF4080 A5=00C00000 A6=000029DA A7=FFFFFFFC D0=80000003 D1=0000FFFF D2=0000FFFF D3=0000FFFF D4=EC430000 D5=00800000 D6=00000000 D7=0000FFFF xnzvc

00:196E  46 FC  MOVE    #$2700,SR                A0=00030573 A1=00FF1F40 A2=00C00004 A3=00C00000 A4=00FF4080 A5=00C00000 A6=000029DA A7=FFFFFFFC D0=80000001 D1=00000000 D2=00000008 D3=0000000F D4=EC430011 D5=00100010 D6=00000000 D7=00000000 xnZvc
00:1972  4D F9  LEA     ($00FF0000),A6           A0=00030573 A1=00FF1F40 A2=00C00004 A3=00C00000 A4=00FF4080 A5=00C00000 A6=000029DA A7=FFFFFFFC D0=80000001 D1=00000000 D2=00000008 D3=0000000F D4=EC430011 D5=00100010 D6=00000000 D7=00000000 xnZvc
00:1978  23 FC  MOVE.l  #$54400000,($00C00004)   A0=00030573 A1=00FF1F40 A2=00C00004 A3=00C00000 A4=00FF4080 A5=00C00000 A6=00FF0000 A7=FFFFFFFC D0=80000001 D1=00000000 D2=00000008 D3=0000000F D4=EC430011 D5=00100010 D6=00000000 D7=00000000 xnzvc
00:1982  4B F9  LEA     ($00C00000),A5           A0=00030573 A1=00FF1F40 A2=00C00004 A3=00C00000 A4=00FF4080 A5=00C00000 A6=00FF0000 A7=FFFFFFFC D0=80000001 D1=00000000 D2=00000008 D3=0000000F D4=EC430011 D5=00100010 D6=00000000 D7=00000000 xnzvc

; Copy to VRAM

00:1988  3E 3C  MOVE.w  #$0F9F,D7                A0=00030573 A1=00FF1F40 A2=00C00004 A3=00C00000 A4=00FF4080 A5=00C00000 A6=00FF0000 A7=FFFFFFFC D0=80000001 D1=00000000 D2=00000008 D3=0000000F D4=EC430011 D5=00100010 D6=00000000 D7=00000000 xnzvc
00:198C  3A 9E  MOVE.w  (A6)+,(A5)               A0=00030573 A1=00FF1F40 A2=00C00004 A3=00C00000 A4=00FF4080 A5=00C00000 A6=00FF0000 A7=FFFFFFFC D0=80000001 D1=00000000 D2=00000008 D3=0000000F D4=EC430011 D5=00100010 D6=00000000 D7=00000F9F xnzvc
00:198E  51 CF  DBFa    D7,#$FFFC [00:198C]      A0=00030573 A1=00FF1F40 A2=00C00004 A3=00C00000 A4=00FF4080 A5=00C00000 A6=00FF0002 A7=FFFFFFFC D0=80000001 D1=00000000 D2=00000008 D3=0000000F D4=EC430011 D5=00100010 D6=00000000 D7=00000F9F xNzvc

00:1992  70 00  MOVEQ   #$00,D0                  A0=00030573 A1=00FF1F40 A2=00C00004 A3=00C00000 A4=00FF4080 A5=00C00000 A6=00FF1F40 A7=FFFFFFFC D0=80000001 D1=00000000 D2=00000008 D3=0000000F D4=EC430011 D5=00100010 D6=00000000 D7=0000FFFF xnzvc
00:1994  43 F9  LEA     ($000229A2),A1           A0=00030573 A1=00FF1F40 A2=00C00004 A3=00C00000 A4=00FF4080 A5=00C00000 A6=00FF1F40 A7=FFFFFFFC D0=00000000 D1=00000000 D2=00000008 D3=0000000F D4=EC430011 D5=00100010 D6=00000000 D7=0000FFFF xnZvc

; =================================================================================
; *********************************************************************************
; *********************************************************************************
; =================================================================================

00:0BA2  7E 00  MOVEQ   #$00,D7                  A0=0002F0D2 A1=00FF0000 A2=00C00004 A3=00C00000 A4=00FF4080 A5=00C00000 A6=000029DA A7=FFFFFFF8 D0=80000003 D1=0000FFFF D2=0000FFFF D3=0000FFFF D4=EC430000 D5=00800000 D6=00000000 D7=0000FFFF xnzvc
00:0BA4  7C 00  MOVEQ   #$00,D6                  A0=0002F0D2 A1=00FF0000 A2=00C00004 A3=00C00000 A4=00FF4080 A5=00C00000 A6=000029DA A7=FFFFFFF8 D0=80000003 D1=0000FFFF D2=0000FFFF D3=0000FFFF D4=EC430000 D5=00800000 D6=00000000 D7=00000000 xnZvc
00:0BA6  76 0F  MOVEQ   #$0F,D3                  A0=0002F0D2 A1=00FF0000 A2=00C00004 A3=00C00000 A4=00FF4080 A5=00C00000 A6=000029DA A7=FFFFFFF8 D0=80000003 D1=0000FFFF D2=0000FFFF D3=0000FFFF D4=EC430000 D5=00800000 D6=00000000 D7=00000000 xnZvc
00:0BA8  74 08  MOVEQ   #$08,D2                  A0=0002F0D2 A1=00FF0000 A2=00C00004 A3=00C00000 A4=00FF4080 A5=00C00000 A6=000029DA A7=FFFFFFF8 D0=80000003 D1=0000FFFF D2=0000FFFF D3=0000000F D4=EC430000 D5=00800000 D6=00000000 D7=00000000 xnzvc

; Check load 8-bit barrel

00:0BAA  46 07  NOT.B   D7                       A0=0002F0D2 A1=00FF0000 A2=00C00004 A3=00C00000 A4=00FF4080 A5=00C00000 A6=000029DA A7=FFFFFFF8 D0=80000003 D1=0000FFFF D2=00000008 D3=0000000F D4=EC430000 D5=00800000 D6=00000000 D7=00000000 xnzvc
00:0BAC  67 00  BEQ     #$0004 [00:0BB2]         A0=0002F0D2 A1=00FF0000 A2=00C00004 A3=00C00000 A4=00FF4080 A5=00C00000 A6=000029DA A7=FFFFFFF8 D0=80000003 D1=0000FFFF D2=00000008 D3=0000000F D4=EC430000 D5=00800000 D6=00000000 D7=000000FF xNzvc
00:0BB0  1A 18  MOVE.b  (A0)+,D5                 A0=0002F0D2 A1=00FF0000 A2=00C00004 A3=00C00000 A4=00FF4080 A5=00C00000 A6=000029DA A7=FFFFFFF8 D0=80000003 D1=0000FFFF D2=00000008 D3=0000000F D4=EC430000 D5=00800000 D6=00000000 D7=000000FF xNzvc

; check upper 4-bit nybble

00:0BB2  E8 1D  ROR.B   #4,D5                    A0=0002F0D3 A1=00FF0000 A2=00C00004 A3=00C00000 A4=00FF4080 A5=00C00000 A6=000029DA A7=FFFFFFF8 D0=80000003 D1=0000FFFF D2=00000008 D3=0000000F D4=EC430000 D5=0080007E D6=00000000 D7=000000FF xnzvc
00:0BB4  12 05  MOVE.b  D5,D1                    A0=0002F0D3 A1=00FF0000 A2=00C00004 A3=00C00000 A4=00FF4080 A5=00C00000 A6=000029DA A7=FFFFFFF8 D0=80000003 D1=0000FFFF D2=00000008 D3=0000000F D4=EC430000 D5=008000E7 D6=00000000 D7=000000FF xNzvC
00:0BB6  C2 43  AND.W   D3,D1                    A0=0002F0D3 A1=00FF0000 A2=00C00004 A3=00C00000 A4=00FF4080 A5=00C00000 A6=000029DA A7=FFFFFFF8 D0=80000003 D1=0000FFE7 D2=00000008 D3=0000000F D4=EC430000 D5=008000E7 D6=00000000 D7=000000FF xNzvc

; 00 = STOP

00:0BB8  67 00  BEQ     #$0068 [00:0C22]         A0=0002F0D3 A1=00FF0000 A2=00C00004 A3=00C00000 A4=00FF4080 A5=00C00000 A6=000029DA A7=FFFFFFF8 D0=80000003 D1=00000007 D2=00000008 D3=0000000F D4=EC430000 D5=008000E7 D6=00000000 D7=000000FF xnzvc

; 01-07 = RLE 4-bpp
; 08-0F = RAW 4-bpp

00:0BBC  B2 42  CMP.W   D2,D1                    A0=0002F0D3 A1=00FF0000 A2=00C00004 A3=00C00000 A4=00FF4080 A5=00C00000 A6=000029DA A7=FFFFFFF8 D0=80000003 D1=00000007 D2=00000008 D3=0000000F D4=EC430000 D5=008000E7 D6=00000000 D7=000000FF xnzvc
00:0BBE  64 00  BCC     #$0032 [00:0BF2]         A0=0002F0D3 A1=00FF0000 A2=00C00004 A3=00C00000 A4=00FF4080 A5=00C00000 A6=000029DA A7=FFFFFFF8 D0=80000003 D1=00000007 D2=00000008 D3=0000000F D4=EC430000 D5=008000E7 D6=00000000 D7=000000FF xNzvC

; ==============================================================================
; ==============================================================================

; Add 2 to run (3-9 DBFa)

00:0BC2  54 01  ADDQ.B  #2,D1                    A0=0002F0D3 A1=00FF0000 A2=00C00004 A3=00C00000 A4=00FF4080 A5=00C00000 A6=000029DA A7=FFFFFFF8 D0=80000003 D1=00000007 D2=00000008 D3=0000000F D4=EC430000 D5=008000E7 D6=00000000 D7=000000FF xNzvC

; Reload barrel

00:0BC4  46 07  NOT.B   D7                       A0=0002F0D3 A1=00FF0000 A2=00C00004 A3=00C00000 A4=00FF4080 A5=00C00000 A6=000029DA A7=FFFFFFF8 D0=80000003 D1=00000009 D2=00000008 D3=0000000F D4=EC430000 D5=008000E7 D6=00000000 D7=000000FF xnzvc
00:0BC6  67 00  BEQ     #$0008 [00:0BD0]         A0=0002F0D3 A1=00FF0000 A2=00C00004 A3=00C00000 A4=00FF4080 A5=00C00000 A6=000029DA A7=FFFFFFF8 D0=80000003 D1=00000009 D2=00000008 D3=0000000F D4=EC430000 D5=008000E7 D6=00000000 D7=00000000 xnZvc
00:0BCA  1A 10  MOVE.b  (A0),D5                  A0=0002F0E5 A1=00FF0044 A2=00C00004 A3=00C00000 A4=00FF4080 A5=00C00000 A6=000029DA A7=FFFFFFF8 D0=8000000F D1=00000004 D2=00000008 D3=0000000F D4=EC4300FF D5=000F00F2 D6=00000000 D7=000000FF xNzvc
00:0BCC  48 45  SWAP.w  D5                       A0=0002F0E5 A1=00FF0044 A2=00C00004 A3=00C00000 A4=00FF4080 A5=00C00000 A6=000029DA A7=FFFFFFF8 D0=8000000F D1=00000004 D2=00000008 D3=0000000F D4=EC4300FF D5=000F00EA D6=00000000 D7=000000FF xNzvc
00:0BCE  1A 18  MOVE.b  (A0)+,D5                 A0=0002F0E5 A1=00FF0044 A2=00C00004 A3=00C00000 A4=00FF4080 A5=00C00000 A6=000029DA A7=FFFFFFF8 D0=8000000F D1=00000004 D2=00000008 D3=0000000F D4=EC4300FF D5=00EA000F D6=00000000 D7=000000FF xnzvc

; Switch nybble (RLE code)

00:0BD0  02 05  ANDI.B  #$F0,D5                  A0=0002F0D3 A1=00FF0000 A2=00C00004 A3=00C00000 A4=00FF4080 A5=00C00000 A6=000029DA A7=FFFFFFF8 D0=80000003 D1=00000009 D2=00000008 D3=0000000F D4=EC430000 D5=008000E7 D6=00000000 D7=00000000 xnZvc
00:0BD4  10 05  MOVE.b  D5,D0                    A0=0002F0D3 A1=00FF0000 A2=00C00004 A3=00C00000 A4=00FF4080 A5=00C00000 A6=000029DA A7=FFFFFFF8 D0=80000003 D1=00000009 D2=00000008 D3=0000000F D4=EC430000 D5=008000E0 D6=00000000 D7=00000000 xNzvc
00:0BD6  E8 18  ROR.B   #4,D0                    A0=0002F0D3 A1=00FF0000 A2=00C00004 A3=00C00000 A4=00FF4080 A5=00C00000 A6=000029DA A7=FFFFFFF8 D0=800000E0 D1=00000009 D2=00000008 D3=0000000F D4=EC430000 D5=008000E0 D6=00000000 D7=00000000 xNzvc

; ------------------------------------------------------------------------------

; Select which 4-bpp nybble to write

00:0BD8  46 06  NOT.B   D6                       A0=0002F0D3 A1=00FF0000 A2=00C00004 A3=00C00000 A4=00FF4080 A5=00C00000 A6=000029DA A7=FFFFFFF8 D0=8000000E D1=00000009 D2=00000008 D3=0000000F D4=EC430000 D5=008000E0 D6=00000000 D7=00000000 xnzvc
00:0BDA  67 00  BEQ     #$0008 [00:0BE4]         A0=0002F0D3 A1=00FF0000 A2=00C00004 A3=00C00000 A4=00FF4080 A5=00C00000 A6=000029DA A7=FFFFFFF8 D0=8000000E D1=00000009 D2=00000008 D3=0000000F D4=EC430000 D5=008000E0 D6=000000FF D7=00000000 xNzvc

; Upper first

00:0BDE  18 05  MOVE.b  D5,D4                    A0=0002F0D3 A1=00FF0000 A2=00C00004 A3=00C00000 A4=00FF4080 A5=00C00000 A6=000029DA A7=FFFFFFF8 D0=8000000E D1=00000009 D2=00000008 D3=0000000F D4=EC430000 D5=008000E0 D6=000000FF D7=00000000 xNzvc
00:0BE0  60 00  BRA     #$0006 [00:0BE8]         A0=0002F0D3 A1=00FF0000 A2=00C00004 A3=00C00000 A4=00FF4080 A5=00C00000 A6=000029DA A7=FFFFFFF8 D0=8000000E D1=00000009 D2=00000008 D3=0000000F D4=EC4300E0 D5=008000E0 D6=000000FF D7=00000000 xNzvc

; Lower last, then write 4-bpp RLE

00:0BE4  88 00  OR.B    D0,D4                    A0=0002F0D3 A1=00FF0000 A2=00C00004 A3=00C00000 A4=00FF4080 A5=00C00000 A6=000029DA A7=FFFFFFF8 D0=8000000E D1=00000008 D2=00000008 D3=0000000F D4=EC4300E0 D5=008000E0 D6=00000000 D7=00000000 xnZvc
00:0BE6  12 C4  MOVE.b  D4,(A1)+                 A0=0002F0D3 A1=00FF0000 A2=00C00004 A3=00C00000 A4=00FF4080 A5=00C00000 A6=000029DA A7=FFFFFFF8 D0=8000000E D1=00000008 D2=00000008 D3=0000000F D4=EC4300EE D5=008000E0 D6=00000000 D7=00000000 xNzvc

00:0BE8  51 C9  DBFa    D1,#$FFEE [00:0BD8]      A0=0002F0D3 A1=00FF0000 A2=00C00004 A3=00C00000 A4=00FF4080 A5=00C00000 A6=000029DA A7=FFFFFFF8 D0=8000000E D1=00000009 D2=00000008 D3=0000000F D4=EC4300E0 D5=008000E0 D6=000000FF D7=00000000 xNzvc

; ------------------------------------------------------------------------------

00:0BEC  48 45  SWAP.w  D5                       A0=0002F0D3 A1=00FF0005 A2=00C00004 A3=00C00000 A4=00FF4080 A5=00C00000 A6=000029DA A7=FFFFFFF8 D0=8000000E D1=0000FFFF D2=00000008 D3=0000000F D4=EC4300EE D5=008000E0 D6=00000000 D7=00000000 xNzvc
00:0BEE  E9 1D  ROL.B   #4,D5                    A0=0002F0D3 A1=00FF0005 A2=00C00004 A3=00C00000 A4=00FF4080 A5=00C00000 A6=000029DA A7=FFFFFFF8 D0=8000000E D1=0000FFFF D2=00000008 D3=0000000F D4=EC4300EE D5=00E00080 D6=00000000 D7=00000000 xnzvc
00:0BF0  60 B8  BRA     #$B8 [00:0BAA]           A0=0002F0D3 A1=00FF0005 A2=00C00004 A3=00C00000 A4=00FF4080 A5=00C00000 A6=000029DA A7=FFFFFFF8 D0=8000000E D1=0000FFFF D2=00000008 D3=0000000F D4=EC4300EE D5=00E00008 D6=00000000 D7=00000000 xnzvc

; ==============================================================================
; ==============================================================================

; 8-F ==> 0-7

00:0BF2  51 01  SUBQ.B  #0,D1                    A0=0002F0E1 A1=00FF0040 A2=00C00004 A3=00C00000 A4=00FF4080 A5=00C00000 A6=000029DA A7=FFFFFFF8 D0=8000000F D1=0000000F D2=00000008 D3=0000000F D4=EC4300FF D5=00F000EF D6=00000000 D7=000000FF xnzvc

; Reload barrel

00:0BF4  46 07  NOT.B   D7                       A0=0002F0E1 A1=00FF0040 A2=00C00004 A3=00C00000 A4=00FF4080 A5=00C00000 A6=000029DA A7=FFFFFFF8 D0=8000000F D1=00000007 D2=00000008 D3=0000000F D4=EC4300FF D5=00F000EF D6=00000000 D7=000000FF xnzvc
00:0BF6  67 00  BEQ     #$0008 [00:0C00]         A0=0002F0E1 A1=00FF0040 A2=00C00004 A3=00C00000 A4=00FF4080 A5=00C00000 A6=000029DA A7=FFFFFFF8 D0=8000000F D1=00000007 D2=00000008 D3=0000000F D4=EC4300FF D5=00F000EF D6=00000000 D7=00000000 xnZvc
00:0BFA  1A 10  MOVE.b  (A0),D5                  A0=0002F0E1 A1=00FF0040 A2=00C00004 A3=00C00000 A4=00FF4080 A5=00C00000 A6=000029DA A7=FFFFFFF8 D0=8000000F D1=00000006 D2=00000008 D3=0000000F D4=EC4300E0 D5=00F000FE D6=000000FF D7=000000FF xNzvc
00:0BFC  48 45  SWAP.w  D5                       A0=0002F0E1 A1=00FF0040 A2=00C00004 A3=00C00000 A4=00FF4080 A5=00C00000 A6=000029DA A7=FFFFFFF8 D0=8000000F D1=00000006 D2=00000008 D3=0000000F D4=EC4300E0 D5=00F000EE D6=000000FF D7=000000FF xNzvc
00:0BFE  1A 18  MOVE.b  (A0)+,D5                 A0=0002F0E1 A1=00FF0040 A2=00C00004 A3=00C00000 A4=00FF4080 A5=00C00000 A6=000029DA A7=FFFFFFF8 D0=8000000F D1=00000006 D2=00000008 D3=0000000F D4=EC4300E0 D5=00EE00F0 D6=000000FF D7=000000FF xnzvc

; ------------------------------------------------------------------------------

00:0C00  46 06  NOT.B   D6                       A0=0002F0E1 A1=00FF0040 A2=00C00004 A3=00C00000 A4=00FF4080 A5=00C00000 A6=000029DA A7=FFFFFFF8 D0=8000000F D1=00000007 D2=00000008 D3=0000000F D4=EC4300FF D5=00F000EF D6=00000000 D7=00000000 xnZvc
00:0C02  67 00  BEQ     #$000C [00:0C10]         A0=0002F0E1 A1=00FF0040 A2=00C00004 A3=00C00000 A4=00FF4080 A5=00C00000 A6=000029DA A7=FFFFFFF8 D0=8000000F D1=00000007 D2=00000008 D3=0000000F D4=EC4300FF D5=00F000EF D6=000000FF D7=00000000 xNzvc

00:0C06  18 05  MOVE.b  D5,D4                    A0=0002F0E1 A1=00FF0040 A2=00C00004 A3=00C00000 A4=00FF4080 A5=00C00000 A6=000029DA A7=FFFFFFF8 D0=8000000F D1=00000007 D2=00000008 D3=0000000F D4=EC4300FF D5=00F000EF D6=000000FF D7=00000000 xNzvc
00:0C08  02 04  ANDI.B  #$F0,D4                  A0=0002F0E1 A1=00FF0040 A2=00C00004 A3=00C00000 A4=00FF4080 A5=00C00000 A6=000029DA A7=FFFFFFF8 D0=8000000F D1=00000007 D2=00000008 D3=0000000F D4=EC4300EF D5=00F000EF D6=000000FF D7=00000000 xNzvc
00:0C0C  60 00  BRA     #$000C [00:0C1A]         A0=0002F0E1 A1=00FF0040 A2=00C00004 A3=00C00000 A4=00FF4080 A5=00C00000 A6=000029DA A7=FFFFFFF8 D0=8000000F D1=00000007 D2=00000008 D3=0000000F D4=EC4300E0 D5=00F000EF D6=000000FF D7=00000000 xNzvc

; ------------------------------------------------------------------------------

00:0C10  E9 1D  ROL.B   #4,D5                    A0=0002F0E2 A1=00FF0040 A2=00C00004 A3=00C00000 A4=00FF4080 A5=00C00000 A6=000029DA A7=FFFFFFF8 D0=8000000F D1=00000006 D2=00000008 D3=0000000F D4=EC4300E0 D5=00EE00EE D6=00000000 D7=000000FF xnZvc
00:0C12  CA 03  AND.B   D3,D5                    A0=0002F0E2 A1=00FF0040 A2=00C00004 A3=00C00000 A4=00FF4080 A5=00C00000 A6=000029DA A7=FFFFFFF8 D0=8000000F D1=00000006 D2=00000008 D3=0000000F D4=EC4300E0 D5=00EE00EE D6=00000000 D7=000000FF xNzvc
00:0C14  88 05  OR.B    D5,D4                    A0=0002F0E2 A1=00FF0040 A2=00C00004 A3=00C00000 A4=00FF4080 A5=00C00000 A6=000029DA A7=FFFFFFF8 D0=8000000F D1=00000006 D2=00000008 D3=0000000F D4=EC4300E0 D5=00EE000E D6=00000000 D7=000000FF xnzvc

; Raw 4-bpp

00:0C16  12 C4  MOVE.b  D4,(A1)+                 A0=0002F0E2 A1=00FF0040 A2=00C00004 A3=00C00000 A4=00FF4080 A5=00C00000 A6=000029DA A7=FFFFFFF8 D0=8000000F D1=00000006 D2=00000008 D3=0000000F D4=EC4300EE D5=00EE000E D6=00000000 D7=000000FF xNzvc
00:0C18  48 45  SWAP.w  D5                       A0=0002F0E2 A1=00FF0041 A2=00C00004 A3=00C00000 A4=00FF4080 A5=00C00000 A6=000029DA A7=FFFFFFF8 D0=8000000F D1=00000006 D2=00000008 D3=0000000F D4=EC4300EE D5=00EE000E D6=00000000 D7=000000FF xNzvc

; ------------------------------------------------------------------------------

00:0C1A  E9 1D  ROL.B   #4,D5                    A0=0002F0E1 A1=00FF0040 A2=00C00004 A3=00C00000 A4=00FF4080 A5=00C00000 A6=000029DA A7=FFFFFFF8 D0=8000000F D1=00000007 D2=00000008 D3=0000000F D4=EC4300E0 D5=00F000EF D6=000000FF D7=00000000 xNzvc
00:0C1C  51 C9  DBFa    D1,#$FFD6 [00:0BF4]      A0=0002F0E1 A1=00FF0040 A2=00C00004 A3=00C00000 A4=00FF4080 A5=00C00000 A6=000029DA A7=FFFFFFF8 D0=8000000F D1=00000007 D2=00000008 D3=0000000F D4=EC4300E0 D5=00F000FE D6=000000FF D7=00000000 xNzvc

00:0C20  60 88  BRA     #$88 [00:0BAA]           A0=0002F0E5 A1=00FF0044 A2=00C00004 A3=00C00000 A4=00FF4080 A5=00C00000 A6=000029DA A7=FFFFFFF8 D0=8000000F D1=0000FFFF D2=00000008 D3=0000000F D4=EC4300FF D5=000F002F D6=00000000 D7=000000FF xnzvC

; ==============================================================================
; ==============================================================================

00:0C22  4E 75  RTS                              A0=00030573 A1=00FF1F40 A2=00C00004 A3=00C00000 A4=00FF4080 A5=00C00000 A6=000029DA A7=FFFFFFF8 D0=80000001 D1=00000000 D2=00000008 D3=0000000F D4=EC430011 D5=00100010 D6=00000000 D7=00000000 xnZvc
