00:AF66  61 00  BSR     #$05B6 [00:B51E]         A0=00FF8346 A1=00FF89FE A2=00FF8076 A3=00FF8078 A4=00FF807A A5=00FF806E A6=0000A4A0 A7=FFFFFFFC D0=00060000 D1=00000000 D2=000001A6 D3=00002066 D4=AC932B2C D5=00000560 D6=00000580 D7=00000000 xnZvc
00:AF6A  61 00  BSR     #$0346 [00:B2B2]         A0=00FF8330 A1=00FF8A00 A2=00C00004 A3=000647AE A4=00FF807A A5=00FF806E A6=0000A4A0 A7=FFFFFFFC D0=00060002 D1=00008600 D2=000001A6 D3=00002902 D4=261B0000 D5=00000001 D6=00000001 D7=0000FFFF xNzvc

; -------------------------------------------------------------------------------------------

00:AF6E  41 F9  LEA     ($0001B94A),A0           A0=0001BD7A A1=00FF8A00 A2=00C00004 A3=00FF8342 A4=00FF807A A5=00FF806E A6=0000A4A0 A7=FFFFFFFC D0=00000001 D1=00000100 D2=000001A6 D3=00002902 D4=261B0119 D5=00000001 D6=00000019 D7=0000FFFF xnzvc
00:AF74  7E 4C  MOVEQ   #$4C,D7                  A0=0001B94A A1=00FF8A00 A2=00C00004 A3=00FF8342 A4=00FF807A A5=00FF806E A6=0000A4A0 A7=FFFFFFFC D0=00000001 D1=00000100 D2=000001A6 D3=00002902 D4=261B0119 D5=00000001 D6=00000019 D7=0000FFFF xnzvc
00:AF76  32 07  MOVE.w  D7,D1                    A0=0001B94A A1=00FF8A00 A2=00C00004 A3=00FF8342 A4=00FF807A A5=00FF806E A6=0000A4A0 A7=FFFFFFFC D0=00000001 D1=00000100 D2=000001A6 D3=00002902 D4=261B0119 D5=00000001 D6=00000019 D7=0000004C xnzvc

; scan control code table

00:AF78  B0 50  CMP.W   (A0),D0                  A0=0001B94A A1=00FF8A00 A2=00C00004 A3=00FF8342 A4=00FF807A A5=00FF806E A6=0000A4A0 A7=FFFFFFFC D0=00000001 D1=0000004C D2=000001A6 D3=00002902 D4=261B0119 D5=00000001 D6=00000019 D7=0000004C xnzvc
00:AF7A  67 00  BEQ     #$001C [00:AF98]         A0=0001B94A A1=00FF8A00 A2=00C00004 A3=00FF8342 A4=00FF807A A5=00FF806E A6=0000A4A0 A7=FFFFFFFC D0=00000001 D1=0000004C D2=000001A6 D3=00002902 D4=261B0119 D5=00000001 D6=00000019 D7=0000004C xNzvC
00:AF7E  54 48  ADDQ.W  #2,A0                    A0=0001B94A A1=00FF8A00 A2=00C00004 A3=00FF8342 A4=00FF807A A5=00FF806E A6=0000A4A0 A7=FFFFFFFC D0=00000001 D1=0000004C D2=000001A6 D3=00002902 D4=261B0119 D5=00000001 D6=00000019 D7=0000004C xNzvC
00:AF80  51 CF  DBFa    D7,#$FFF6 [00:AF78]      A0=0001B94C A1=00FF8A00 A2=00C00004 A3=00FF8342 A4=00FF807A A5=00FF806E A6=0000A4A0 A7=FFFFFFFC D0=00000001 D1=0000004C D2=000001A6 D3=00002902 D4=261B0119 D5=00000001 D6=00000019 D7=0000004C xNzvC

; ===========================================================================================
; ===========================================================================================

; Assume raw font tile

00:AF84  B0 79  CMP.W   ($00FF833E),D0           A0=0001B9E4 A1=00FF8A00 A2=00C00004 A3=00FF8342 A4=00FF807A A5=00FF806E A6=0000A4A0 A7=FFFFFFFC D0=00000001 D1=0000004C D2=000001A6 D3=00002902 D4=261B0119 D5=00000001 D6=00000019 D7=0000FFFF xnzvc
00:AF8A  67 00  BEQ     #$0224 [00:B1B0]         A0=0001B9E4 A1=00FF8A00 A2=00C00004 A3=00FF8342 A4=00FF807A A5=00FF806E A6=0000A4A0 A7=FFFFFFFC D0=00000001 D1=0000004C D2=000001A6 D3=00002902 D4=261B0119 D5=00000001 D6=00000019 D7=0000FFFF xNzvC

00:AF8E  33 C0  MOVE.w  D0,($00FF833E)           A0=0001B9E4 A1=00FF8A00 A2=00C00004 A3=00FF8342 A4=00FF807A A5=00FF806E A6=0000A4A0 A7=FFFFFFFC D0=00000001 D1=0000004C D2=000001A6 D3=00002902 D4=261B0119 D5=00000001 D6=00000019 D7=0000FFFF xNzvC
00:AF94  60 00  BRA     #$023A [00:B1D0]         A0=0001B9E4 A1=00FF8A00 A2=00C00004 A3=00FF8342 A4=00FF807A A5=00FF806E A6=0000A4A0 A7=FFFFFFFC D0=00000001 D1=0000004C D2=000001A6 D3=00002902 D4=261B0119 D5=00000001 D6=00000019 D7=0000FFFF xnzvc

; ===========================================================================================
; ===========================================================================================

; Assume control code

00:AF98  36 00  MOVE.w  D0,D3                    A0=0001B9E2 A1=00FF89FE A2=00FF8076 A3=00FF8342 A4=00FF807A A5=00FF806E A6=0000A4A0 A7=FFFFFFFC D0=00010000 D1=0001004C D2=00000002 D3=00002069 D4=AC931A00 D5=0000001A D6=00000000 D7=00000000 xnZvc

; 81-87, 8A-8E = Raw font tiles

00:AF9A  BE 7C  CMP.W   #$000D,D7                A0=0001B9E2 A1=00FF89FE A2=00FF8076 A3=00FF8342 A4=00FF807A A5=00FF806E A6=0000A4A0 A7=FFFFFFFC D0=00010000 D1=0001004C D2=00000002 D3=00000000 D4=AC931A00 D5=0000001A D6=00000000 D7=00000000 xnZvc
00:AF9E  65 00  BCS     #$0210 [00:B1B0]         A0=0001B9E2 A1=00FF89FE A2=00FF8076 A3=00FF8342 A4=00FF807A A5=00FF806E A6=0000A4A0 A7=FFFFFFFC D0=00010000 D1=0001004C D2=00000002 D3=00000000 D4=AC931A00 D5=0000001A D6=00000000 D7=00000000 xNzvC

; E6-105 = NOP

00:AFA2  BE 7C  CMP.W   #$002D,D7                A0=0001B958 A1=00FF89FE A2=00FF8076 A3=00FF8342 A4=00FF807A A5=00FF806E A6=0000A4A0 A7=FFFFFFFC D0=00000089 D1=0002004C D2=00000002 D3=00000089 D4=AC938935 D5=00000089 D6=00000035 D7=00000045 xnzvc
00:AFA6  65 00  BCS     #$0206 [00:B1AE]         A0=0001B958 A1=00FF89FE A2=00FF8076 A3=00FF8342 A4=00FF807A A5=00FF806E A6=0000A4A0 A7=FFFFFFFC D0=00000089 D1=0002004C D2=00000002 D3=00000089 D4=AC938935 D5=00000089 D6=00000035 D7=00000045 xnzvc

; B0-B7

00:AFAA  BE 7C  CMP.W   #$0035,D7                A0=0001B958 A1=00FF89FE A2=00FF8076 A3=00FF8342 A4=00FF807A A5=00FF806E A6=0000A4A0 A7=FFFFFFFC D0=00000089 D1=0002004C D2=00000002 D3=00000089 D4=AC938935 D5=00000089 D6=00000035 D7=00000045 xnzvc
00:AFAE  65 00  BCS     #$0258 [00:B208]         A0=0001B958 A1=00FF89FE A2=00FF8076 A3=00FF8342 A4=00FF807A A5=00FF806E A6=0000A4A0 A7=FFFFFFFC D0=00000089 D1=0002004C D2=00000002 D3=00000089 D4=AC938935 D5=00000089 D6=00000035 D7=00000045 xnzvc

; B8-BF

00:AFB2  BE 7C  CMP.W   #$003D,D7                A0=0001B958 A1=00FF89FE A2=00FF8076 A3=00FF8342 A4=00FF807A A5=00FF806E A6=0000A4A0 A7=FFFFFFFC D0=00000089 D1=0002004C D2=00000002 D3=00000089 D4=AC938935 D5=00000089 D6=00000035 D7=00000045 xnzvc
00:AFB6  65 00  BCS     #$025E [00:B216]         A0=0001B958 A1=00FF89FE A2=00FF8076 A3=00FF8342 A4=00FF807A A5=00FF806E A6=0000A4A0 A7=FFFFFFFC D0=00000089 D1=0002004C D2=00000002 D3=00000089 D4=AC938935 D5=00000089 D6=00000035 D7=00000045 xnzvc

; C0-C7

00:AFBA  BE 7C  CMP.W   #$0045,D7                A0=0001B958 A1=00FF89FE A2=00FF8076 A3=00FF8342 A4=00FF807A A5=00FF806E A6=0000A4A0 A7=FFFFFFFC D0=00000089 D1=0002004C D2=00000002 D3=00000089 D4=AC938935 D5=00000089 D6=00000035 D7=00000045 xnzvc
00:AFBE  65 00  BCS     #$0262 [00:B222]         A0=0001B958 A1=00FF89FE A2=00FF8076 A3=00FF8342 A4=00FF807A A5=00FF806E A6=0000A4A0 A7=FFFFFFFC D0=00000089 D1=0002004C D2=00000002 D3=00000089 D4=AC938935 D5=00000089 D6=00000035 D7=00000045 xnZvc

; -----------------------------------------------------------------------------------------

; E0-E5, 88-89

00:AFC2  92 47  SUB.W   D7,D1                    A0=0001B958 A1=00FF89FE A2=00FF8076 A3=00FF8342 A4=00FF807A A5=00FF806E A6=0000A4A0 A7=FFFFFFFC D0=00000089 D1=0002004C D2=00000002 D3=00000089 D4=AC938935 D5=00000089 D6=00000035 D7=00000045 xnZvc
00:AFC4  C2 FC  MULU.W  #$0004,D1                A0=0001B958 A1=00FF89FE A2=00FF8076 A3=00FF8342 A4=00FF807A A5=00FF806E A6=0000A4A0 A7=FFFFFFFC D0=00000089 D1=00020007 D2=00000002 D3=00000089 D4=AC938935 D5=00000089 D6=00000035 D7=00000045 xnzvc
00:AFC8  4E FB  JMP     $02(PC,D1)               A0=0001B958 A1=00FF89FE A2=00FF8076 A3=00FF8342 A4=00FF807A A5=00FF806E A6=0000A4A0 A7=FFFFFFFC D0=00000089 D1=0000001C D2=00000002 D3=00000089 D4=AC938935 D5=00000089 D6=00000035 D7=00000045 xnzvc

; =========================================================================================
; *****************************************************************************************
; *****************************************************************************************
; =========================================================================================

00:B2B2  20 79  MOVE.l  ($00FF832C),A0           A0=00063DAE A1=00FF89FE A2=00FF8076 A3=00FF8078 A4=00FF807A A5=00FF806E A6=0000A4A0 A7=FFFFFFF8 D0=00060000 D1=00000000 D2=000001A6 D3=00002066 D4=AC932B2C D5=00000560 D6=00000000 D7=0000FFFF xnZvc
00:B2B8  47 F9  LEA     ($00FF8342),A3           A0=0001BD30 A1=00FF89FE A2=00FF8076 A3=00FF8078 A4=00FF807A A5=00FF806E A6=0000A4A0 A7=FFFFFFF8 D0=00060000 D1=00000000 D2=000001A6 D3=00002066 D4=AC932B2C D5=00000560 D6=00000000 D7=0000FFFF xnZvc
00:B2BE  70 00  MOVEQ   #$00,D0                  A0=0001BD30 A1=00FF89FE A2=00FF8076 A3=00FF8342 A4=00FF807A A5=00FF806E A6=0000A4A0 A7=FFFFFFF8 D0=00060000 D1=00000000 D2=000001A6 D3=00002066 D4=AC932B2C D5=00000560 D6=00000000 D7=0000FFFF xnZvc
00:B2C0  30 13  MOVE.w  (A3),D0                  A0=0001BD30 A1=00FF89FE A2=00FF8076 A3=00FF8342 A4=00FF807A A5=00FF806E A6=0000A4A0 A7=FFFFFFF8 D0=00000000 D1=00000000 D2=000001A6 D3=00002066 D4=AC932B2C D5=00000560 D6=00000000 D7=0000FFFF xnZvc
00:B2C2  80 FC  DIVU.W  #$0002,D0                A0=0001BD30 A1=00FF89FE A2=00FF8076 A3=00FF8342 A4=00FF807A A5=00FF806E A6=0000A4A0 A7=FFFFFFF8 D0=00000000 D1=00000000 D2=000001A6 D3=00002066 D4=AC932B2C D5=00000560 D6=00000000 D7=0000FFFF xnZvc

00:B2C6  22 00  MOVE.l  D0,D1                    A0=0001BD30 A1=00FF89FE A2=00FF8076 A3=00FF8342 A4=00FF807A A5=00FF806E A6=0000A4A0 A7=FFFFFFF8 D0=00000000 D1=00000000 D2=000001A6 D3=00002066 D4=AC932B2C D5=00000560 D6=00000000 D7=0000FFFF xnZvc
00:B2C8  D0 40  ADD.W   D0,D0                    A0=0001BD30 A1=00FF89FE A2=00FF8076 A3=00FF8342 A4=00FF807A A5=00FF806E A6=0000A4A0 A7=FFFFFFF8 D0=00000000 D1=00000000 D2=000001A6 D3=00002066 D4=AC932B2C D5=00000560 D6=00000000 D7=0000FFFF xnZvc
00:B2CA  D0 C0  ADDA.W  D0,A0                    A0=0001BD30 A1=00FF89FE A2=00FF8076 A3=00FF8342 A4=00FF807A A5=00FF806E A6=0000A4A0 A7=FFFFFFF8 D0=00000000 D1=00000000 D2=000001A6 D3=00002066 D4=AC932B2C D5=00000560 D6=00000000 D7=0000FFFF xnZvc

; read script code

00:B2CC  38 10  MOVE.w  (A0),D4                  A0=0001BD30 A1=00FF89FE A2=00FF8076 A3=00FF8342 A4=00FF807A A5=00FF806E A6=0000A4A0 A7=FFFFFFF8 D0=00000000 D1=00000000 D2=000001A6 D3=00002066 D4=AC932B2C D5=00000560 D6=00000000 D7=0000FFFF xnZvc
00:B2CE  4E B9  JSR     ($00000FCC)              A0=0001BD30 A1=00FF89FE A2=00FF8076 A3=00FF8342 A4=00FF807A A5=00FF806E A6=0000A4A0 A7=FFFFFFF8 D0=00000000 D1=00000000 D2=000001A6 D3=00002066 D4=AC935330 D5=00000560 D6=00000000 D7=0000FFFF xnzvc

; ~~~~~~~~~~~~~~~~~~~~~~~~~~~~~~~~~~~~~~~~~~~~~~~~~~~~~~~~~~~~~~~~~~~~~~~~~~~~~~~~~~~~~~~~
; ~~~~~~~~~~~~~~~~~~~~~~~~~~~~~~~~~~~~~~~~~~~~~~~~~~~~~~~~~~~~~~~~~~~~~~~~~~~~~~~~~~~~~~~~

; split to D5/D6

00:0FCC  7A 00  MOVEQ   #$00,D5                  A0=00065724 A1=00FF8088 A2=00C00004 A3=000647AE A4=00FF807A A5=00FF806E A6=0000A4A0 A7=FFFFFFF8 D0=00000000 D1=00000000 D2=0000FFFF D3=00000004 D4=261B0101 D5=00000000 D6=00000000 D7=00000004 xnzvc
00:0FCE  7C 00  MOVEQ   #$00,D6                  A0=00065724 A1=00FF8088 A2=00C00004 A3=000647AE A4=00FF807A A5=00FF806E A6=0000A4A0 A7=FFFFFFF8 D0=00000000 D1=00000000 D2=0000FFFF D3=00000004 D4=261B0101 D5=00000000 D6=00000000 D7=00000004 xnZvc
00:0FD0  3A 04  MOVE.w  D4,D5                    A0=00065724 A1=00FF8088 A2=00C00004 A3=000647AE A4=00FF807A A5=00FF806E A6=0000A4A0 A7=FFFFFFF8 D0=00000000 D1=00000000 D2=0000FFFF D3=00000004 D4=261B0101 D5=00000000 D6=00000000 D7=00000004 xnZvc
00:0FD2  1C 05  MOVE.b  D5,D6                    A0=00065724 A1=00FF8088 A2=00C00004 A3=000647AE A4=00FF807A A5=00FF806E A6=0000A4A0 A7=FFFFFFF8 D0=00000000 D1=00000000 D2=0000FFFF D3=00000004 D4=261B0101 D5=00000101 D6=00000000 D7=00000004 xnzvc
00:0FD4  E0 4D  LSR.W   #0,D5                    A0=00065724 A1=00FF8088 A2=00C00004 A3=000647AE A4=00FF807A A5=00FF806E A6=0000A4A0 A7=FFFFFFF8 D0=00000000 D1=00000000 D2=0000FFFF D3=00000004 D4=261B0101 D5=00000101 D6=00000001 D7=00000004 xnzvc
00:0FD6  4E 75  RTS                              A0=00065724 A1=00FF8088 A2=00C00004 A3=000647AE A4=00FF807A A5=00FF806E A6=0000A4A0 A7=FFFFFFF8 D0=00000000 D1=00000000 D2=0000FFFF D3=00000004 D4=261B0101 D5=00000001 D6=00000001 D7=00000004 xnzvc

; ~~~~~~~~~~~~~~~~~~~~~~~~~~~~~~~~~~~~~~~~~~~~~~~~~~~~~~~~~~~~~~~~~~~~~~~~~~~~~~~~~~~~~~~~
; ~~~~~~~~~~~~~~~~~~~~~~~~~~~~~~~~~~~~~~~~~~~~~~~~~~~~~~~~~~~~~~~~~~~~~~~~~~~~~~~~~~~~~~~~

; Output = D5

00:B2D4  30 05  MOVE.w  D5,D0                    A0=0001BD30 A1=00FF89FE A2=00FF8076 A3=00FF8342 A4=00FF807A A5=00FF806E A6=0000A4A0 A7=FFFFFFF8 D0=00000000 D1=00000000 D2=000001A6 D3=00002066 D4=AC935330 D5=00000053 D6=00000030 D7=0000FFFF xnzvc
00:B2D6  48 41  SWAP.w  D1                       A0=0001BD30 A1=00FF89FE A2=00FF8076 A3=00FF8342 A4=00FF807A A5=00FF806E A6=0000A4A0 A7=FFFFFFF8 D0=00000053 D1=00000000 D2=000001A6 D3=00002066 D4=AC935330 D5=00000053 D6=00000030 D7=0000FFFF xnzvc
00:B2D8  4A 41  TST.W   D1                       A0=0001BD30 A1=00FF89FE A2=00FF8076 A3=00FF8342 A4=00FF807A A5=00FF806E A6=0000A4A0 A7=FFFFFFF8 D0=00000053 D1=00000000 D2=000001A6 D3=00002066 D4=AC935330 D5=00000053 D6=00000030 D7=0000FFFF xnZvc
00:B2DA  67 00  BEQ     #$0004 [00:B2E0]         A0=0001BD30 A1=00FF89FE A2=00FF8076 A3=00FF8342 A4=00FF807A A5=00FF806E A6=0000A4A0 A7=FFFFFFF8 D0=00000053 D1=00000000 D2=000001A6 D3=00002066 D4=AC935330 D5=00000053 D6=00000030 D7=0000FFFF xnZvc

; Switch to D6 output

00:B2DE  30 06  MOVE.w  D6,D0                    A0=0001BD7A A1=00FF8A00 A2=FFFFC6C0 A3=00FF8342 A4=00FF807A A5=00FF806E A6=0000A4A0 A7=FFFFFFF8 D0=00010001 D1=00000001 D2=00000001 D3=00002903 D4=261B0119 D5=00000001 D6=00000019 D7=00000000 xnzvc

; ----------------------------------------------------------------------------------------

00:B2E0  52 79  ADDQ.W  #1,($00FF8342)           A0=0001BD30 A1=00FF89FE A2=00FF8076 A3=00FF8342 A4=00FF807A A5=00FF806E A6=0000A4A0 A7=FFFFFFF8 D0=00000053 D1=00000000 D2=000001A6 D3=00002066 D4=AC935330 D5=00000053 D6=00000030 D7=0000FFFF xnZvc
00:B2E6  32 00  MOVE.w  D0,D1                    A0=0001BD30 A1=00FF89FE A2=00FF8076 A3=00FF8342 A4=00FF807A A5=00FF806E A6=0000A4A0 A7=FFFFFFF8 D0=00000053 D1=00000000 D2=000001A6 D3=00002066 D4=AC935330 D5=00000053 D6=00000030 D7=0000FFFF xnzvc

00:B2E8  E1 49  LSL.W   #0,D1                    A0=0001BD30 A1=00FF89FE A2=00FF8076 A3=00FF8342 A4=00FF807A A5=00FF806E A6=0000A4A0 A7=FFFFFFF8 D0=00000053 D1=00000053 D2=000001A6 D3=00002066 D4=AC935330 D5=00000053 D6=00000030 D7=0000FFFF xnzvc
00:B2EA  33 C1  MOVE.w  D1,($00FF833C)           A0=0001BD30 A1=00FF89FE A2=00FF8076 A3=00FF8342 A4=00FF807A A5=00FF806E A6=0000A4A0 A7=FFFFFFF8 D0=00000053 D1=00005300 D2=000001A6 D3=00002066 D4=AC935330 D5=00000053 D6=00000030 D7=0000FFFF xnzvc
00:B2F0  4E 75  RTS                              A0=0001BD30 A1=00FF89FE A2=00FF8076 A3=00FF8342 A4=00FF807A A5=00FF806E A6=0000A4A0 A7=FFFFFFF8 D0=00000053 D1=00005300 D2=000001A6 D3=00002066 D4=AC935330 D5=00000053 D6=00000030 D7=0000FFFF xnzvc

; ===========================================================================================
; *******************************************************************************************
; *******************************************************************************************
; ===========================================================================================

; EXAMPLE PRINTING ROUTINE

00:0726  45 F9  LEA     ($00C00004),A2           A0=00065758 A1=000658B6 A2=FFFFBB10 A3=00C00000 A4=00FF4080 A5=00C00000 A6=000029DA A7=FFFFFFF4 D0=7B100002 D1=00000017 D2=00000001 D3=00008000 D4=EC430002 D5=00800000 D6=00000460 D7=0000FFFF xnzvc
00:072C  47 F9  LEA     ($00C00000),A3           A0=00065758 A1=000658B6 A2=00C00004 A3=00C00000 A4=00FF4080 A5=00C00000 A6=000029DA A7=FFFFFFF4 D0=7B100002 D1=00000017 D2=00000001 D3=00008000 D4=EC430002 D5=00800000 D6=00000460 D7=0000FFFF xnzvc

00:0732  2E 3C  MOVE.l  #$00800000,D7            A0=00065758 A1=000658B6 A2=00C00004 A3=00C00000 A4=00FF4080 A5=00C00000 A6=000029DA A7=FFFFFFF4 D0=7B100002 D1=00000017 D2=00000001 D3=00008000 D4=EC430002 D5=00800000 D6=00000460 D7=0000FFFF xnzvc
00:0738  3C 3C  MOVE.w  #$00FF,D6                A0=00065758 A1=000658B6 A2=00C00004 A3=00C00000 A4=00FF4080 A5=00C00000 A6=000029DA A7=FFFFFFF4 D0=7B100002 D1=00000017 D2=00000001 D3=00008000 D4=EC430002 D5=00800000 D6=00000460 D7=00800000 xnzvc

; -------------------------------------------------------------------------------------------

; set vram address

00:073C  24 80  MOVE.l  D0,(A2)                  A0=00065758 A1=000658B6 A2=00C00004 A3=00C00000 A4=00FF4080 A5=00C00000 A6=000029DA A7=FFFFFFF4 D0=7B100002 D1=00000017 D2=00000001 D3=00008000 D4=EC430002 D5=00800000 D6=000000FF D7=00800000 xnzvc
00:073E  38 01  MOVE.w  D1,D4                    A0=00065758 A1=000658B6 A2=00C00004 A3=00C00000 A4=00FF4080 A5=00C00000 A6=000029DA A7=FFFFFFF4 D0=7B100002 D1=00000017 D2=00000001 D3=00008000 D4=EC430002 D5=00800000 D6=000000FF D7=00800000 xnzvc

; load script byte / add attributes

00:0740  1A 19  MOVE.b  (A1)+,D5                 A0=00065758 A1=000658B6 A2=00C00004 A3=00C00000 A4=00FF4080 A5=00C00000 A6=000029DA A7=FFFFFFF4 D0=7B100002 D1=00000017 D2=00000001 D3=00008000 D4=EC430017 D5=00800000 D6=000000FF D7=00800000 xnzvc
00:0742  CA 46  AND.W   D6,D5                    A0=00065758 A1=000658B7 A2=00C00004 A3=00C00000 A4=00FF4080 A5=00C00000 A6=000029DA A7=FFFFFFF4 D0=7B100002 D1=00000017 D2=00000001 D3=00008000 D4=EC430017 D5=00800000 D6=000000FF D7=00800000 xnZvc
00:0744  DA 43  ADD.W   D3,D5                    A0=00065758 A1=000658B7 A2=00C00004 A3=00C00000 A4=00FF4080 A5=00C00000 A6=000029DA A7=FFFFFFF4 D0=7B100002 D1=00000017 D2=00000001 D3=00008000 D4=EC430017 D5=00800000 D6=000000FF D7=00800000 xnZvc
00:0746  36 85  MOVE.w  D5,(A3)                  A0=00065758 A1=000658B7 A2=00C00004 A3=00C00000 A4=00FF4080 A5=00C00000 A6=000029DA A7=FFFFFFF4 D0=7B100002 D1=00000017 D2=00000001 D3=00008000 D4=EC430017 D5=00808000 D6=000000FF D7=00800000 xNzvc
00:0748  51 CC  DBFa    D4,#$FFF6 [00:0740]      A0=00065758 A1=000658B7 A2=00C00004 A3=00C00000 A4=00FF4080 A5=00C00000 A6=000029DA A7=FFFFFFF4 D0=7B100002 D1=00000017 D2=00000001 D3=00008000 D4=EC430017 D5=00808000 D6=000000FF D7=00800000 xNzvc

; bump 2 NT lines

00:074C  D0 87  ADD.L   D7,D0                    A0=00065758 A1=000658CE A2=00C00004 A3=00C00000 A4=00FF4080 A5=00C00000 A6=000029DA A7=FFFFFFF4 D0=7B100002 D1=00000017 D2=00000001 D3=00008000 D4=EC43FFFF D5=00808000 D6=000000FF D7=00800000 xNzvc
00:074E  51 CA  DBFa    D2,#$FFEC [00:073C]      A0=00065758 A1=000658CE A2=00C00004 A3=00C00000 A4=00FF4080 A5=00C00000 A6=000029DA A7=FFFFFFF4 D0=7B900002 D1=00000017 D2=00000001 D3=00008000 D4=EC43FFFF D5=00808000 D6=000000FF D7=00800000 xnzvc

; -------------------------------------------------------------------------------------------

00:0752  4E 75  RTS                              A0=00065758 A1=000658E6 A2=00C00004 A3=00C00000 A4=00FF4080 A5=00C00000 A6=000029DA A7=FFFFFFF4 D0=7C100002 D1=00000017 D2=0000FFFF D3=00008000 D4=EC43FFFF D5=00808087 D6=000000FF D7=00800000 xnzvc
